; Function Attrs: nofree norecurse nosync nounwind memory(read, inaccessiblemem: none) uwtable
define i32 @Gia_ManMulFindGetOverlap2(ptr noundef readonly captures(none) %0, ptr noundef readonly captures(none) %1) local_unnamed_addr #4 {
  %3 = getelementptr i8, ptr %0, i64 4
  %.val17 = load i32, ptr %3, align 4, !tbaa !33
  %4 = icmp sgt i32 %.val17, 1
  br i1 %4, label %.lr.ph24, label %.critedge

.lr.ph24:                                         ; preds = %2
  %5 = getelementptr i8, ptr %0, i64 8
  %.val19 = load ptr, ptr %5, align 8, !tbaa !35
  %6 = getelementptr i8, ptr %1, i64 4
  %.val = load i32, ptr %6, align 4, !tbaa !33
  %7 = icmp sgt i32 %.val, 0
  br i1 %7, label %.lr.ph24.split.us, label %.critedge

.lr.ph24.split.us:                                ; preds = %.lr.ph24
  %8 = getelementptr i8, ptr %1, i64 8
  %.val18.us = load ptr, ptr %8, align 8, !tbaa !35
  %wide.trip.count31 = zext nneg i32 %.val17 to i64
  %wide.trip.count = zext nneg i32 %.val to i64
  br label %.lr.ph.us

.lr.ph.us:                                        ; preds = %..critedge2_crit_edge.us, %.lr.ph24.split.us
  %indvars.iv28 = phi i64 [ %indvars.iv.next29, %..critedge2_crit_edge.us ], [ 1, %.lr.ph24.split.us ]
  %.023.us = phi i32 [ %spec.select.us, %..critedge2_crit_edge.us ], [ 0, %.lr.ph24.split.us ]
  %9 = getelementptr inbounds nuw i32, ptr %.val19, i64 %indvars.iv28
  %10 = load i32, ptr %9, align 4, !tbaa !29
  br label %11

11:                                               ; preds = %.lr.ph.us, %11
  %indvars.iv = phi i64 [ 0, %.lr.ph.us ], [ %indvars.iv.next, %11 ]
  %.121.us = phi i32 [ %.023.us, %.lr.ph.us ], [ %spec.select.us, %11 ]
  %12 = getelementptr inbounds nuw i32, ptr %.val18.us, i64 %indvars.iv
  %13 = load i32, ptr %12, align 4, !tbaa !29
  %14 = icmp eq i32 %10, %13
  %15 = zext i1 %14 to i32
  %spec.select.us = add nsw i32 %.121.us, %15
  %indvars.iv.next = add nuw nsw i64 %indvars.iv, 1
  %exitcond.not = icmp eq i64 %indvars.iv.next, %wide.trip.count
  br i1 %exitcond.not, label %..critedge2_crit_edge.us, label %11, !llvm.loop !48

..critedge2_crit_edge.us:                         ; preds = %11
  %indvars.iv.next29 = add nuw nsw i64 %indvars.iv28, 1
  %exitcond32.not = icmp eq i64 %indvars.iv.next29, %wide.trip.count31
  br i1 %exitcond32.not, label %.critedge, label %.lr.ph.us, !llvm.loop !49

.critedge:                                        ; preds = %..critedge2_crit_edge.us, %.lr.ph24, %2
  %.0.lcssa = phi i32 [ 0, %2 ], [ 0, %.lr.ph24 ], [ %spec.select.us, %..critedge2_crit_edge.us ]
  ret i32 %.0.lcssa
}